target datalayout = "e-m:e-p270:32:32-p271:32:32-p272:64:64-i64:64-i128:128-f80:128-n8:16:32:64-S128"
target triple = "x86_64-pc-linux-gnu"

@.str.4 = private unnamed_addr constant [2 x i8] c"r\00", align 1

; Function Attrs: nounwind uwtable
define ptr @cl_load_crl(ptr noundef %0) #0 {
  %2 = alloca ptr, align 8
  %3 = alloca ptr, align 8
  %4 = alloca ptr, align 8
  %5 = alloca ptr, align 8
  %6 = alloca i32, align 4
  %7 = alloca ptr, align 8
  store ptr %0, ptr %3, align 8, !tbaa !3
  call void @llvm.lifetime.start.p0(i64 8, ptr %4) #8
  store ptr null, ptr %4, align 8, !tbaa !41
  call void @llvm.lifetime.start.p0(i64 8, ptr %5) #8
  %8 = load ptr, ptr %3, align 8, !tbaa !3
  %9 = icmp ne ptr %8, null
  br i1 %9, label %11, label %10

10:                                               ; preds = %1
  store ptr null, ptr %2, align 8
  store i32 1, ptr %6, align 4
  br label %41

11:                                               ; preds = %1
  %12 = load ptr, ptr %3, align 8, !tbaa !3
  %13 = call noalias ptr @fopen(ptr noundef %12, ptr noundef @.str.4)
  store ptr %13, ptr %5, align 8, !tbaa !22
  %14 = load ptr, ptr %5, align 8, !tbaa !22
  %15 = icmp ne ptr %14, null
  br i1 %15, label %17, label %16

16:                                               ; preds = %11
  store ptr null, ptr %2, align 8
  store i32 1, ptr %6, align 4
  br label %41

17:                                               ; preds = %11
  %18 = load ptr, ptr %5, align 8, !tbaa !22
  %19 = call ptr @PEM_read_X509_CRL(ptr noundef %18, ptr noundef null, ptr noundef null, ptr noundef null)
  store ptr %19, ptr %4, align 8, !tbaa !41
  %20 = load ptr, ptr %5, align 8, !tbaa !22
  %21 = call i32 @fclose(ptr noundef %20)
  %22 = load ptr, ptr %4, align 8, !tbaa !41
  %23 = icmp ne ptr %22, null
  br i1 %23, label %24, label %39

24:                                               ; preds = %17
  call void @llvm.lifetime.start.p0(i64 8, ptr %7) #8
  %25 = load ptr, ptr %4, align 8, !tbaa !41
  %26 = call ptr @X509_CRL_get0_nextUpdate(ptr noundef %25)
  store ptr %26, ptr %7, align 8, !tbaa !47
  %27 = load ptr, ptr %7, align 8, !tbaa !47
  %28 = icmp ne ptr %27, null
  br i1 %28, label %29, label %33

29:                                               ; preds = %24
  %30 = load ptr, ptr %7, align 8, !tbaa !47
  %31 = call i32 @X509_cmp_current_time(ptr noundef %30)
  %32 = icmp slt i32 %31, 0
  br i1 %32, label %33, label %35

33:                                               ; preds = %29, %24
  %34 = load ptr, ptr %4, align 8, !tbaa !41
  call void @X509_CRL_free(ptr noundef %34)
  store ptr null, ptr %2, align 8
  store i32 1, ptr %6, align 4
  br label %36

35:                                               ; preds = %29
  store i32 0, ptr %6, align 4
  br label %36

36:                                               ; preds = %35, %33
  call void @llvm.lifetime.end.p0(i64 8, ptr %7) #8
  %37 = load i32, ptr %6, align 4
  switch i32 %37, label %41 [
    i32 0, label %38
  ]

38:                                               ; preds = %36
  br label %39

39:                                               ; preds = %38, %17
  %40 = load ptr, ptr %4, align 8, !tbaa !41
  store ptr %40, ptr %2, align 8
  store i32 1, ptr %6, align 4
  br label %41

41:                                               ; preds = %39, %36, %16, %10
  call void @llvm.lifetime.end.p0(i64 8, ptr %5) #8
  call void @llvm.lifetime.end.p0(i64 8, ptr %4) #8
  %42 = load ptr, ptr %2, align 8
  ret ptr %42
}