; Function Attrs: nounwind uwtable
define ptr @cl_load_crl(ptr noundef readonly %0) local_unnamed_addr #1 {
  %.not = icmp eq ptr %0, null
  br i1 %.not, label %12, label %2

2:                                                ; preds = %1
  %3 = tail call noalias ptr @fopen(ptr noundef nonnull %0, ptr noundef nonnull @.str.4)
  %.not17 = icmp eq ptr %3, null
  br i1 %.not17, label %12, label %4

4:                                                ; preds = %2
  %5 = tail call ptr @PEM_read_X509_CRL(ptr noundef nonnull %3, ptr noundef null, ptr noundef null, ptr noundef null) #12
  %6 = tail call i32 @fclose(ptr noundef nonnull %3)
  %.not18 = icmp eq ptr %5, null
  br i1 %.not18, label %12, label %7

7:                                                ; preds = %4
  %8 = tail call ptr @X509_CRL_get0_nextUpdate(ptr noundef nonnull %5) #12
  %.not19 = icmp eq ptr %8, null
  br i1 %.not19, label %.critedge, label %9

9:                                                ; preds = %7
  %10 = tail call i32 @X509_cmp_current_time(ptr noundef nonnull %8) #12
  %11 = icmp slt i32 %10, 0
  br i1 %11, label %.critedge, label %12

.critedge:                                        ; preds = %9, %7
  tail call void @X509_CRL_free(ptr noundef nonnull %5) #12
  br label %12

12:                                               ; preds = %4, %9, %.critedge, %2, %1
  %.0 = phi ptr [ null, %1 ], [ null, %2 ], [ null, %.critedge ], [ %5, %9 ], [ null, %4 ]
  ret ptr %.0
}